target datalayout = "e-m:e-p270:32:32-p271:32:32-p272:64:64-i64:64-i128:128-f80:128-n8:16:32:64-S128"
target triple = "x86_64-pc-linux-gnu"

%struct._object = type { i64, ptr }
%"class.std::__cxx11::basic_string" = type { %"struct.std::__cxx11::basic_string<char>::_Alloc_hider", i64, %union.anon }
%"struct.std::__cxx11::basic_string<char>::_Alloc_hider" = type { ptr }
%union.anon = type { i64, [8 x i8] }
%struct.tagPyArrayObject_fields = type { %struct._object, ptr, i32, ptr, ptr, ptr, ptr, i32, ptr, ptr }
%struct._PyArray_Descr = type { %struct._object, ptr, i8, i8, i8, i8, i32, i32, i32, ptr, ptr, ptr, ptr, ptr, ptr, i64 }
%class.PySafeObject = type { ptr }

@.str.75 = private unnamed_addr constant [3 x i8] c"%d\00", align 1

; Function Attrs: mustprogress nounwind uwtable
define linkonce_odr hidden noundef ptr @_ZN12PySafeObjectcvP7_objectEv(ptr noundef nonnull align 8 dereferenceable(8) %0) #5 comdat align 2 {
  %2 = alloca ptr, align 8
  store ptr %0, ptr %2, align 8
  %3 = load ptr, ptr %2, align 8
  %4 = getelementptr inbounds %class.PySafeObject, ptr %3, i32 0, i32 0
  %5 = load ptr, ptr %4, align 8
  ret ptr %5
}

; Function Attrs: mustprogress nounwind uwtable
define internal noundef i32 @_ZL12PyArray_TYPEPK16tagPyArrayObject(ptr noundef %0) #5 {
  %2 = alloca ptr, align 8
  store ptr %0, ptr %2, align 8
  %3 = load ptr, ptr %2, align 8
  %4 = getelementptr inbounds %struct.tagPyArrayObject_fields, ptr %3, i32 0, i32 6
  %5 = load ptr, ptr %4, align 8
  %6 = getelementptr inbounds %struct._PyArray_Descr, ptr %5, i32 0, i32 6
  %7 = load i32, ptr %6, align 4
  ret i32 %7
}

; Function Attrs: mustprogress nounwind uwtable
define linkonce_odr hidden noundef zeroext i1 @_ZN12PySafeObjectcvbEv(ptr noundef nonnull align 8 dereferenceable(8) %0) #5 comdat align 2 {
  %2 = alloca ptr, align 8
  store ptr %0, ptr %2, align 8
  %3 = load ptr, ptr %2, align 8
  %4 = getelementptr inbounds %class.PySafeObject, ptr %3, i32 0, i32 0
  %5 = load ptr, ptr %4, align 8
  %6 = icmp ne ptr %5, null
  ret i1 %6
}

; Function Attrs: mustprogress nounwind uwtable
define linkonce_odr hidden void @_ZN12PySafeObjectC2EP7_object(ptr noundef nonnull align 8 dereferenceable(8) %0, ptr noundef %1) unnamed_addr #5 comdat align 2 {
  %3 = alloca ptr, align 8
  %4 = alloca ptr, align 8
  store ptr %0, ptr %3, align 8
  store ptr %1, ptr %4, align 8
  %5 = load ptr, ptr %3, align 8
  %6 = getelementptr inbounds %class.PySafeObject, ptr %5, i32 0, i32 0
  %7 = load ptr, ptr %4, align 8
  store ptr %7, ptr %6, align 8
  ret void
}

; Function Attrs: mustprogress nounwind uwtable
define internal noundef ptr @_ZL13PyArray_DESCRP16tagPyArrayObject(ptr noundef %0) #5 {
  %2 = alloca ptr, align 8
  store ptr %0, ptr %2, align 8
  %3 = load ptr, ptr %2, align 8
  %4 = getelementptr inbounds %struct.tagPyArrayObject_fields, ptr %3, i32 0, i32 6
  %5 = load ptr, ptr %4, align 8
  ret ptr %5
}

; Function Attrs: mustprogress uwtable
define internal void @_ZL16getArrayTypeNameB5cxx11P16tagPyArrayObject(ptr dead_on_unwind noalias writable sret(%"class.std::__cxx11::basic_string") align 8 %0, ptr noundef %1) #4 personality ptr @__gxx_personality_v0 {
  %3 = alloca ptr, align 8
  %4 = alloca ptr, align 8
  %5 = alloca ptr, align 8
  %6 = alloca %class.PySafeObject, align 8
  %7 = alloca ptr, align 8
  %8 = alloca i32, align 4
  %9 = alloca i32, align 4
  %10 = alloca %"class.std::__cxx11::basic_string", align 8
  store ptr %0, ptr %3, align 8
  store ptr %1, ptr %4, align 8
  %11 = load ptr, ptr %4, align 8
  %12 = call noundef ptr @_ZL13PyArray_DESCRP16tagPyArrayObject(ptr noundef %11)
  store ptr %12, ptr %5, align 8
  %13 = load ptr, ptr %5, align 8
  %14 = call ptr @PyObject_Str(ptr noundef %13)
  call void @_ZN12PySafeObjectC2EP7_object(ptr noundef nonnull align 8 dereferenceable(8) %6, ptr noundef %14)
  %15 = invoke noundef zeroext i1 @_ZN12PySafeObjectcvbEv(ptr noundef nonnull align 8 dereferenceable(8) %6)
          to label %16 unwind label %21

16:                                               ; preds = %2
  br i1 %15, label %25, label %17

17:                                               ; preds = %16
  %18 = load ptr, ptr %4, align 8
  %19 = call noundef i32 @_ZL12PyArray_TYPEPK16tagPyArrayObject(ptr noundef %18)
  invoke void (ptr, ptr, ...) @_ZN2cv6formatB5cxx11EPKcz(ptr dead_on_unwind writable sret(%"class.std::__cxx11::basic_string") align 8 %0, ptr noundef @.str.75, i32 noundef %19)
          to label %20 unwind label %21

20:                                               ; preds = %17
  store i32 1, ptr %9, align 4
  br label %41

21:                                               ; preds = %17, %2
  %22 = landingpad { ptr, i32 }
          cleanup
  %23 = extractvalue { ptr, i32 } %22, 0
  store ptr %23, ptr %7, align 8
  %24 = extractvalue { ptr, i32 } %22, 1
  store i32 %24, ptr %8, align 4
  br label %42

25:                                               ; preds = %16
  call void @_ZNSt7__cxx1112basic_stringIcSt11char_traitsIcESaIcEEC1Ev(ptr noundef nonnull align 8 dereferenceable(32) %10) #3
  %26 = invoke noundef ptr @_ZN12PySafeObjectcvP7_objectEv(ptr noundef nonnull align 8 dereferenceable(8) %6)
          to label %27 unwind label %35

27:                                               ; preds = %25
  %28 = invoke noundef zeroext i1 @_ZL16getUnicodeStringP7_objectRNSt7__cxx1112basic_stringIcSt11char_traitsIcESaIcEEE(ptr noundef %26, ptr noundef nonnull align 8 dereferenceable(32) %10)
          to label %29 unwind label %35

29:                                               ; preds = %27
  br i1 %28, label %39, label %30

30:                                               ; preds = %29
  invoke void @PyErr_Clear()
          to label %31 unwind label %35

31:                                               ; preds = %30
  %32 = load ptr, ptr %4, align 8
  %33 = call noundef i32 @_ZL12PyArray_TYPEPK16tagPyArrayObject(ptr noundef %32)
  invoke void (ptr, ptr, ...) @_ZN2cv6formatB5cxx11EPKcz(ptr dead_on_unwind writable sret(%"class.std::__cxx11::basic_string") align 8 %0, ptr noundef @.str.75, i32 noundef %33)
          to label %34 unwind label %35

34:                                               ; preds = %31
  store i32 1, ptr %9, align 4
  br label %40

35:                                               ; preds = %31, %30, %27, %25
  %36 = landingpad { ptr, i32 }
          cleanup
  %37 = extractvalue { ptr, i32 } %36, 0
  store ptr %37, ptr %7, align 8
  %38 = extractvalue { ptr, i32 } %36, 1
  store i32 %38, ptr %8, align 4
  call void @_ZNSt7__cxx1112basic_stringIcSt11char_traitsIcESaIcEED1Ev(ptr noundef nonnull align 8 dereferenceable(32) %10) #3
  br label %42

39:                                               ; preds = %29
  call void @_ZNSt7__cxx1112basic_stringIcSt11char_traitsIcESaIcEEC1EOS4_(ptr noundef nonnull align 8 dereferenceable(32) %0, ptr noundef nonnull align 8 dereferenceable(32) %10) #3
  store i32 1, ptr %9, align 4
  br label %40

40:                                               ; preds = %39, %34
  call void @_ZNSt7__cxx1112basic_stringIcSt11char_traitsIcESaIcEED1Ev(ptr noundef nonnull align 8 dereferenceable(32) %10) #3
  br label %41

41:                                               ; preds = %40, %20
  call void @_ZN12PySafeObjectD2Ev(ptr noundef nonnull align 8 dereferenceable(8) %6) #3
  ret void

42:                                               ; preds = %35, %21
  call void @_ZN12PySafeObjectD2Ev(ptr noundef nonnull align 8 dereferenceable(8) %6) #3
  br label %43

43:                                               ; preds = %42
  %44 = load ptr, ptr %7, align 8
  %45 = load i32, ptr %8, align 4
  %46 = insertvalue { ptr, i32 } poison, ptr %44, 0
  %47 = insertvalue { ptr, i32 } %46, i32 %45, 1
  resume { ptr, i32 } %47
}