; Function Attrs: mustprogress uwtable
define internal fastcc void @_ZL16getArrayTypeNameB5cxx11P16tagPyArrayObject(ptr dead_on_unwind noalias writable align 8 %0, ptr nocapture noundef readonly %1) unnamed_addr #3 personality ptr @__gxx_personality_v0 {
  %3 = alloca %class.PySafeObject, align 8
  %4 = alloca %"class.std::__cxx11::basic_string", align 8
  %5 = getelementptr i8, ptr %1, i64 56
  %.val8 = load ptr, ptr %5, align 8
  %6 = tail call ptr @PyObject_Str(ptr noundef %.val8)
  store ptr %6, ptr %3, align 8
  %.not = icmp eq ptr %6, null
  br i1 %.not, label %7, label %11

7:                                                ; preds = %2
  %.val7 = load ptr, ptr %5, align 8
  %8 = getelementptr i8, ptr %.val7, i64 28
  %.val7.val = load i32, ptr %8, align 4
  invoke void (ptr, ptr, ...) @_ZN2cv6formatB5cxx11EPKcz(ptr dead_on_unwind writable sret(%"class.std::__cxx11::basic_string") align 8 %0, ptr noundef nonnull @.str.75, i32 noundef %.val7.val)
          to label %_ZN12PySafeObjectD2Ev.exit unwind label %9

9:                                                ; preds = %7
  %10 = landingpad { ptr, i32 }
          cleanup
  br label %27

11:                                               ; preds = %2
  call void @_ZNSt7__cxx1112basic_stringIcSt11char_traitsIcESaIcEEC1Ev(ptr noundef nonnull align 8 dereferenceable(32) %4) #12
  %12 = invoke fastcc noundef zeroext i1 @_ZL16getUnicodeStringP7_objectRNSt7__cxx1112basic_stringIcSt11char_traitsIcESaIcEEE(ptr noundef nonnull %6, ptr noundef nonnull align 8 dereferenceable(32) %4)
          to label %13 unwind label %17

13:                                               ; preds = %11
  br i1 %12, label %19, label %14

14:                                               ; preds = %13
  invoke void @PyErr_Clear()
          to label %15 unwind label %17

15:                                               ; preds = %14
  %.val = load ptr, ptr %5, align 8
  %16 = getelementptr i8, ptr %.val, i64 28
  %.val.val = load i32, ptr %16, align 4
  invoke void (ptr, ptr, ...) @_ZN2cv6formatB5cxx11EPKcz(ptr dead_on_unwind writable sret(%"class.std::__cxx11::basic_string") align 8 %0, ptr noundef nonnull @.str.75, i32 noundef %.val.val)
          to label %20 unwind label %17

17:                                               ; preds = %15, %14, %11
  %18 = landingpad { ptr, i32 }
          cleanup
  call void @_ZNSt7__cxx1112basic_stringIcSt11char_traitsIcESaIcEED1Ev(ptr noundef nonnull align 8 dereferenceable(32) %4) #12
  br label %27

19:                                               ; preds = %13
  call void @_ZNSt7__cxx1112basic_stringIcSt11char_traitsIcESaIcEEC1EOS4_(ptr noundef nonnull align 8 dereferenceable(32) %0, ptr noundef nonnull align 8 dereferenceable(32) %4) #12
  br label %20

20:                                               ; preds = %15, %19
  call void @_ZNSt7__cxx1112basic_stringIcSt11char_traitsIcESaIcEED1Ev(ptr noundef nonnull align 8 dereferenceable(32) %4) #12
  store ptr null, ptr %3, align 8
  %21 = load i64, ptr %6, align 8
  %22 = add nsw i64 %21, -1
  store i64 %22, ptr %6, align 8
  %.not.i.i = icmp eq i64 %22, 0
  br i1 %.not.i.i, label %23, label %_ZN12PySafeObjectD2Ev.exit

23:                                               ; preds = %20
  invoke void @_Py_Dealloc(ptr noundef nonnull %6)
          to label %_ZN12PySafeObjectD2Ev.exit unwind label %24

24:                                               ; preds = %23
  %25 = landingpad { ptr, i32 }
          catch ptr null
  %26 = extractvalue { ptr, i32 } %25, 0
  call void @__clang_call_terminate(ptr %26) #13
  unreachable

_ZN12PySafeObjectD2Ev.exit:                       ; preds = %7, %20, %23
  ret void

27:                                               ; preds = %17, %9
  %.pn = phi { ptr, i32 } [ %18, %17 ], [ %10, %9 ]
  call void @_ZN12PySafeObjectD2Ev(ptr noundef nonnull align 8 dereferenceable(8) %3) #12
  resume { ptr, i32 } %.pn
}